target datalayout = "e-m:e-p270:32:32-p271:32:32-p272:64:64-i64:64-i128:128-f80:128-n8:16:32:64-S128"
target triple = "x86_64-pc-linux-gnu"

%struct.dict = type { ptr, [2 x ptr], [2 x i64], i64, i16, [2 x i8], i16, [0 x ptr] }
%struct.dictExpireMetadata = type { %struct.ExpireMeta, ptr, ptr }
%struct.ExpireMeta = type { i32, i16, i16, ptr }
%struct.redisObject = type { i32, i32, ptr }
%struct.listpackEx = type { %struct.ExpireMeta, ptr, ptr }
%struct.redisDb = type { ptr, ptr, ptr, ptr, ptr, ptr, ptr, i32, i64, i64, ptr }

@hashExpireBucketsType = dso_local global { ptr, ptr, i32, [4 x i8] } { ptr @hashGetExpireMeta, ptr null, i32 0, [4 x i8] zeroinitializer }, align 8

; Function Attrs: inlinehint nounwind uwtable
define internal i32 @isDictWithMetaHFE(ptr noundef %0) #7 {
  %2 = alloca ptr, align 8
  store ptr %0, ptr %2, align 8, !tbaa !5
  %3 = load ptr, ptr %2, align 8, !tbaa !5
  %4 = getelementptr inbounds nuw %struct.dict, ptr %3, i32 0, i32 0
  %5 = load ptr, ptr %4, align 8, !tbaa !128
  %6 = icmp eq ptr %5, @mstrHashDictTypeWithHFE
  %7 = zext i1 %6 to i32
  ret i32 %7
}

; Function Attrs: inlinehint nounwind uwtable
define internal i64 @ebGetMetaExpTime(ptr noundef %0) #7 {
  %2 = alloca ptr, align 8
  store ptr %0, ptr %2, align 8, !tbaa !72
  %3 = load ptr, ptr %2, align 8, !tbaa !72
  %4 = getelementptr inbounds nuw %struct.ExpireMeta, ptr %3, i32 0, i32 1
  %5 = load i16, ptr %4, align 4, !tbaa !146
  %6 = zext i16 %5 to i64
  %7 = shl i64 %6, 32
  %8 = load ptr, ptr %2, align 8, !tbaa !72
  %9 = getelementptr inbounds nuw %struct.ExpireMeta, ptr %8, i32 0, i32 0
  %10 = load i32, ptr %9, align 8, !tbaa !147
  %11 = zext i32 %10 to i64
  %12 = or i64 %7, %11
  ret i64 %12
}

; Function Attrs: nounwind uwtable
define dso_local void @hashTypeAddToExpires(ptr noundef %0, ptr noundef %1, ptr noundef %2, i64 noundef %3) #1 {
  %5 = alloca ptr, align 8
  %6 = alloca ptr, align 8
  %7 = alloca ptr, align 8
  %8 = alloca i64, align 8
  %9 = alloca ptr, align 8
  %10 = alloca ptr, align 8
  %11 = alloca ptr, align 8
  store ptr %0, ptr %5, align 8, !tbaa !27
  store ptr %1, ptr %6, align 8, !tbaa !33
  store ptr %2, ptr %7, align 8, !tbaa !15
  store i64 %3, ptr %8, align 8, !tbaa !31
  %12 = load i64, ptr %8, align 8, !tbaa !31
  %13 = icmp ugt i64 %12, 281474976710655
  br i1 %13, label %14, label %15

14:                                               ; preds = %4
  br label %79

15:                                               ; preds = %4
  %16 = load ptr, ptr %7, align 8, !tbaa !15
  %17 = load i32, ptr %16, align 8
  %18 = lshr i32 %17, 4
  %19 = and i32 %18, 15
  %20 = icmp eq i32 %19, 12
  br i1 %20, label %21, label %43

21:                                               ; preds = %15
  call void @llvm.lifetime.start.p0(i64 8, ptr %9) #12
  %22 = load ptr, ptr %7, align 8, !tbaa !15
  %23 = getelementptr inbounds nuw %struct.redisObject, ptr %22, i32 0, i32 2
  %24 = load ptr, ptr %23, align 8, !tbaa !17
  store ptr %24, ptr %9, align 8, !tbaa !19
  %25 = load ptr, ptr %6, align 8, !tbaa !33
  %26 = load ptr, ptr %9, align 8, !tbaa !19
  %27 = getelementptr inbounds nuw %struct.listpackEx, ptr %26, i32 0, i32 1
  store ptr %25, ptr %27, align 8, !tbaa !26
  %28 = load i64, ptr %8, align 8, !tbaa !31
  %29 = icmp ne i64 %28, 0
  br i1 %29, label %30, label %32

30:                                               ; preds = %21
  %31 = load i64, ptr %8, align 8, !tbaa !31
  br label %36

32:                                               ; preds = %21
  %33 = load ptr, ptr %9, align 8, !tbaa !19
  %34 = getelementptr inbounds nuw %struct.listpackEx, ptr %33, i32 0, i32 0
  %35 = call i64 @ebGetMetaExpTime(ptr noundef %34)
  br label %36

36:                                               ; preds = %32, %30
  %37 = phi i64 [ %31, %30 ], [ %35, %32 ]
  store i64 %37, ptr %8, align 8, !tbaa !31
  %38 = load ptr, ptr %5, align 8, !tbaa !27
  %39 = getelementptr inbounds nuw %struct.redisDb, ptr %38, i32 0, i32 2
  %40 = load ptr, ptr %7, align 8, !tbaa !15
  %41 = load i64, ptr %8, align 8, !tbaa !31
  %42 = call i32 @ebAdd(ptr noundef %39, ptr noundef @hashExpireBucketsType, ptr noundef %40, i64 noundef %41)
  call void @llvm.lifetime.end.p0(i64 8, ptr %9) #12
  br label %79

43:                                               ; preds = %15
  %44 = load ptr, ptr %7, align 8, !tbaa !15
  %45 = load i32, ptr %44, align 8
  %46 = lshr i32 %45, 4
  %47 = and i32 %46, 15
  %48 = icmp eq i32 %47, 2
  br i1 %48, label %49, label %78

49:                                               ; preds = %43
  call void @llvm.lifetime.start.p0(i64 8, ptr %10) #12
  %50 = load ptr, ptr %7, align 8, !tbaa !15
  %51 = getelementptr inbounds nuw %struct.redisObject, ptr %50, i32 0, i32 2
  %52 = load ptr, ptr %51, align 8, !tbaa !17
  store ptr %52, ptr %10, align 8, !tbaa !5
  %53 = load ptr, ptr %10, align 8, !tbaa !5
  %54 = call i32 @isDictWithMetaHFE(ptr noundef %53)
  %55 = icmp ne i32 %54, 0
  br i1 %55, label %56, label %77

56:                                               ; preds = %49
  call void @llvm.lifetime.start.p0(i64 8, ptr %11) #12
  %57 = load ptr, ptr %10, align 8, !tbaa !5
  %58 = getelementptr inbounds nuw %struct.dict, ptr %57, i32 0, i32 7
  store ptr %58, ptr %11, align 8, !tbaa !11
  %59 = load i64, ptr %8, align 8, !tbaa !31
  %60 = icmp ne i64 %59, 0
  br i1 %60, label %61, label %63

61:                                               ; preds = %56
  %62 = load i64, ptr %8, align 8, !tbaa !31
  br label %67

63:                                               ; preds = %56
  %64 = load ptr, ptr %11, align 8, !tbaa !11
  %65 = getelementptr inbounds nuw %struct.dictExpireMetadata, ptr %64, i32 0, i32 0
  %66 = call i64 @ebGetMetaExpTime(ptr noundef %65)
  br label %67

67:                                               ; preds = %63, %61
  %68 = phi i64 [ %62, %61 ], [ %66, %63 ]
  store i64 %68, ptr %8, align 8, !tbaa !31
  %69 = load ptr, ptr %6, align 8, !tbaa !33
  %70 = load ptr, ptr %11, align 8, !tbaa !11
  %71 = getelementptr inbounds nuw %struct.dictExpireMetadata, ptr %70, i32 0, i32 2
  store ptr %69, ptr %71, align 8, !tbaa !123
  %72 = load ptr, ptr %5, align 8, !tbaa !27
  %73 = getelementptr inbounds nuw %struct.redisDb, ptr %72, i32 0, i32 2
  %74 = load ptr, ptr %7, align 8, !tbaa !15
  %75 = load i64, ptr %8, align 8, !tbaa !31
  %76 = call i32 @ebAdd(ptr noundef %73, ptr noundef @hashExpireBucketsType, ptr noundef %74, i64 noundef %75)
  call void @llvm.lifetime.end.p0(i64 8, ptr %11) #12
  br label %77

77:                                               ; preds = %67, %49
  call void @llvm.lifetime.end.p0(i64 8, ptr %10) #12
  br label %78

78:                                               ; preds = %77, %43
  br label %79

79:                                               ; preds = %14, %78, %36
  ret void
}