; Function Attrs: nounwind uwtable
define dso_local void @hashTypeAddToExpires(ptr noundef %0, ptr noundef %1, ptr noundef %2, i64 noundef %3) local_unnamed_addr #1 {
  %5 = icmp ugt i64 %3, 281474976710655
  br i1 %5, label %36, label %6

6:                                                ; preds = %4
  %7 = load i32, ptr %2, align 8
  %8 = lshr i32 %7, 4
  %9 = and i32 %8, 15
  switch i32 %9, label %36 [
    i32 12, label %10
    i32 2, label %20
  ]

10:                                               ; preds = %6
  %11 = getelementptr inbounds nuw i8, ptr %2, i64 8
  %12 = load ptr, ptr %11, align 8, !tbaa !10
  %13 = getelementptr inbounds nuw i8, ptr %12, i64 16
  store ptr %1, ptr %13, align 8, !tbaa !27
  %.not24 = icmp eq i64 %3, 0
  br i1 %.not24, label %14, label %.sink.split

14:                                               ; preds = %10
  %.val26 = load i32, ptr %12, align 8, !tbaa !69
  %15 = getelementptr i8, ptr %12, i64 4
  %.val27 = load i16, ptr %15, align 4, !tbaa !70
  %16 = zext i16 %.val27 to i64
  %17 = shl nuw nsw i64 %16, 32
  %18 = zext i32 %.val26 to i64
  %19 = or disjoint i64 %17, %18
  br label %.sink.split

20:                                               ; preds = %6
  %21 = getelementptr inbounds nuw i8, ptr %2, i64 8
  %22 = load ptr, ptr %21, align 8, !tbaa !10
  %.val28 = load ptr, ptr %22, align 8, !tbaa !56
  %.not = icmp eq ptr %.val28, @mstrHashDictTypeWithHFE
  br i1 %.not, label %23, label %36

23:                                               ; preds = %20
  %.not23 = icmp eq i64 %3, 0
  br i1 %.not23, label %24, label %31

24:                                               ; preds = %23
  %25 = getelementptr inbounds nuw i8, ptr %22, i64 56
  %.val = load i32, ptr %25, align 8, !tbaa !69
  %26 = getelementptr i8, ptr %22, i64 60
  %.val25 = load i16, ptr %26, align 4, !tbaa !70
  %27 = zext i16 %.val25 to i64
  %28 = shl nuw nsw i64 %27, 32
  %29 = zext i32 %.val to i64
  %30 = or disjoint i64 %28, %29
  br label %31

31:                                               ; preds = %23, %24
  %32 = phi i64 [ %30, %24 ], [ %3, %23 ]
  %33 = getelementptr inbounds nuw i8, ptr %22, i64 80
  store ptr %1, ptr %33, align 8, !tbaa !105
  br label %.sink.split

.sink.split:                                      ; preds = %14, %10, %31
  %.sink29 = phi i64 [ %32, %31 ], [ %19, %14 ], [ %3, %10 ]
  %34 = getelementptr inbounds nuw i8, ptr %0, i64 16
  %35 = tail call i32 @ebAdd(ptr noundef nonnull %34, ptr noundef nonnull @hashExpireBucketsType, ptr noundef nonnull %2, i64 noundef %.sink29) #16
  br label %36

36:                                               ; preds = %.sink.split, %20, %6, %4
  ret void
}